target datalayout = "e-m:e-p270:32:32-p271:32:32-p272:64:64-i64:64-i128:128-f80:128-n8:16:32:64-S128"
target triple = "x86_64-pc-linux-gnu"

%struct.Curl_cwriter = type { ptr, ptr, ptr, i32 }
%struct.brotli_writer = type { %struct.Curl_cwriter, [16384 x i8], ptr }

; Function Attrs: nounwind uwtable
define internal i32 @brotli_map_error(i32 noundef %0) #0 {
  %2 = alloca i32, align 4
  %3 = alloca i32, align 4
  store i32 %0, ptr %3, align 4, !tbaa !22
  %4 = load i32, ptr %3, align 4, !tbaa !22
  switch i32 %4, label %7 [
    i32 -1, label %5
    i32 -3, label %5
    i32 -4, label %5
    i32 -5, label %5
    i32 -6, label %5
    i32 -7, label %5
    i32 -8, label %5
    i32 -9, label %5
    i32 -10, label %5
    i32 -11, label %5
    i32 -12, label %5
    i32 -13, label %5
    i32 -14, label %5
    i32 -15, label %5
    i32 -20, label %5
    i32 -21, label %6
    i32 -22, label %6
    i32 -25, label %6
    i32 -26, label %6
    i32 -27, label %6
    i32 -30, label %6
  ]

5:                                                ; preds = %1, %1, %1, %1, %1, %1, %1, %1, %1, %1, %1, %1, %1, %1, %1
  store i32 61, ptr %2, align 4
  br label %9

6:                                                ; preds = %1, %1, %1, %1, %1, %1
  store i32 27, ptr %2, align 4
  br label %9

7:                                                ; preds = %1
  br label %8

8:                                                ; preds = %7
  store i32 23, ptr %2, align 4
  br label %9

9:                                                ; preds = %8, %6, %5
  %10 = load i32, ptr %2, align 4
  ret i32 %10
}

; Function Attrs: nounwind uwtable
define internal i32 @brotli_do_write(ptr noundef %0, ptr noundef %1, i32 noundef %2, ptr noundef %3, i64 noundef %4) #0 {
  %6 = alloca i32, align 4
  %7 = alloca ptr, align 8
  %8 = alloca ptr, align 8
  %9 = alloca i32, align 4
  %10 = alloca ptr, align 8
  %11 = alloca i64, align 8
  %12 = alloca ptr, align 8
  %13 = alloca ptr, align 8
  %14 = alloca ptr, align 8
  %15 = alloca i64, align 8
  %16 = alloca i32, align 4
  %17 = alloca i32, align 4
  %18 = alloca i32, align 4
  store ptr %0, ptr %7, align 8, !tbaa !20
  store ptr %1, ptr %8, align 8, !tbaa !98
  store i32 %2, ptr %9, align 4, !tbaa !22
  store ptr %3, ptr %10, align 8, !tbaa !3
  store i64 %4, ptr %11, align 8, !tbaa !8
  call void @llvm.lifetime.start.p0(i64 8, ptr %12) #5
  %19 = load ptr, ptr %8, align 8, !tbaa !98
  store ptr %19, ptr %12, align 8, !tbaa !123
  call void @llvm.lifetime.start.p0(i64 8, ptr %13) #5
  %20 = load ptr, ptr %10, align 8, !tbaa !3
  store ptr %20, ptr %13, align 8, !tbaa !3
  call void @llvm.lifetime.start.p0(i64 8, ptr %14) #5
  call void @llvm.lifetime.start.p0(i64 8, ptr %15) #5
  call void @llvm.lifetime.start.p0(i64 4, ptr %16) #5
  store i32 0, ptr %16, align 4, !tbaa !22
  call void @llvm.lifetime.start.p0(i64 4, ptr %17) #5
  store i32 3, ptr %17, align 4, !tbaa !22
  %21 = load i32, ptr %9, align 4, !tbaa !22
  %22 = and i32 %21, 1
  %23 = icmp ne i32 %22, 0
  br i1 %23, label %24, label %27

24:                                               ; preds = %5
  %25 = load i64, ptr %11, align 8, !tbaa !8
  %26 = icmp ne i64 %25, 0
  br i1 %26, label %36, label %27

27:                                               ; preds = %24, %5
  %28 = load ptr, ptr %7, align 8, !tbaa !20
  %29 = load ptr, ptr %8, align 8, !tbaa !98
  %30 = getelementptr inbounds nuw %struct.Curl_cwriter, ptr %29, i32 0, i32 1
  %31 = load ptr, ptr %30, align 8, !tbaa !114
  %32 = load i32, ptr %9, align 4, !tbaa !22
  %33 = load ptr, ptr %10, align 8, !tbaa !3
  %34 = load i64, ptr %11, align 8, !tbaa !8
  %35 = call i32 @Curl_cwriter_write(ptr noundef %28, ptr noundef %31, i32 noundef %32, ptr noundef %33, i64 noundef %34)
  store i32 %35, ptr %6, align 4
  store i32 1, ptr %18, align 4
  br label %98

36:                                               ; preds = %24
  %37 = load ptr, ptr %12, align 8, !tbaa !123
  %38 = getelementptr inbounds nuw %struct.brotli_writer, ptr %37, i32 0, i32 2
  %39 = load ptr, ptr %38, align 8, !tbaa !125
  %40 = icmp ne ptr %39, null
  br i1 %40, label %42, label %41

41:                                               ; preds = %36
  store i32 23, ptr %6, align 4
  store i32 1, ptr %18, align 4
  br label %98

42:                                               ; preds = %36
  br label %43

43:                                               ; preds = %95, %42
  %44 = load i64, ptr %11, align 8, !tbaa !8
  %45 = icmp ne i64 %44, 0
  br i1 %45, label %49, label %46

46:                                               ; preds = %43
  %47 = load i32, ptr %17, align 4, !tbaa !22
  %48 = icmp eq i32 %47, 3
  br i1 %48, label %49, label %52

49:                                               ; preds = %46, %43
  %50 = load i32, ptr %16, align 4, !tbaa !22
  %51 = icmp eq i32 %50, 0
  br label %52

52:                                               ; preds = %49, %46
  %53 = phi i1 [ false, %46 ], [ %51, %49 ]
  br i1 %53, label %54, label %96

54:                                               ; preds = %52
  %55 = load ptr, ptr %12, align 8, !tbaa !123
  %56 = getelementptr inbounds nuw %struct.brotli_writer, ptr %55, i32 0, i32 1
  %57 = getelementptr inbounds [16384 x i8], ptr %56, i64 0, i64 0
  store ptr %57, ptr %14, align 8, !tbaa !3
  store i64 16384, ptr %15, align 8, !tbaa !8
  %58 = load ptr, ptr %12, align 8, !tbaa !123
  %59 = getelementptr inbounds nuw %struct.brotli_writer, ptr %58, i32 0, i32 2
  %60 = load ptr, ptr %59, align 8, !tbaa !125
  %61 = call i32 @BrotliDecoderDecompressStream(ptr noundef %60, ptr noundef %11, ptr noundef %13, ptr noundef %15, ptr noundef %14, ptr noundef null)
  store i32 %61, ptr %17, align 4, !tbaa !22
  %62 = load ptr, ptr %7, align 8, !tbaa !20
  %63 = load ptr, ptr %8, align 8, !tbaa !98
  %64 = getelementptr inbounds nuw %struct.Curl_cwriter, ptr %63, i32 0, i32 1
  %65 = load ptr, ptr %64, align 8, !tbaa !114
  %66 = load i32, ptr %9, align 4, !tbaa !22
  %67 = load ptr, ptr %12, align 8, !tbaa !123
  %68 = getelementptr inbounds nuw %struct.brotli_writer, ptr %67, i32 0, i32 1
  %69 = getelementptr inbounds [16384 x i8], ptr %68, i64 0, i64 0
  %70 = load i64, ptr %15, align 8, !tbaa !8
  %71 = sub i64 16384, %70
  %72 = call i32 @Curl_cwriter_write(ptr noundef %62, ptr noundef %65, i32 noundef %66, ptr noundef %69, i64 noundef %71)
  store i32 %72, ptr %16, align 4, !tbaa !22
  %73 = load i32, ptr %16, align 4, !tbaa !22
  %74 = icmp ne i32 %73, 0
  br i1 %74, label %75, label %76

75:                                               ; preds = %54
  br label %96

76:                                               ; preds = %54
  %77 = load i32, ptr %17, align 4, !tbaa !22
  switch i32 %77, label %89 [
    i32 3, label %78
    i32 2, label %78
    i32 1, label %79
  ]

78:                                               ; preds = %76, %76
  br label %95

79:                                               ; preds = %76
  %80 = load ptr, ptr %12, align 8, !tbaa !123
  %81 = getelementptr inbounds nuw %struct.brotli_writer, ptr %80, i32 0, i32 2
  %82 = load ptr, ptr %81, align 8, !tbaa !125
  call void @BrotliDecoderDestroyInstance(ptr noundef %82)
  %83 = load ptr, ptr %12, align 8, !tbaa !123
  %84 = getelementptr inbounds nuw %struct.brotli_writer, ptr %83, i32 0, i32 2
  store ptr null, ptr %84, align 8, !tbaa !125
  %85 = load i64, ptr %11, align 8, !tbaa !8
  %86 = icmp ne i64 %85, 0
  br i1 %86, label %87, label %88

87:                                               ; preds = %79
  store i32 23, ptr %16, align 4, !tbaa !22
  br label %88

88:                                               ; preds = %87, %79
  br label %95

89:                                               ; preds = %76
  %90 = load ptr, ptr %12, align 8, !tbaa !123
  %91 = getelementptr inbounds nuw %struct.brotli_writer, ptr %90, i32 0, i32 2
  %92 = load ptr, ptr %91, align 8, !tbaa !125
  %93 = call i32 @BrotliDecoderGetErrorCode(ptr noundef %92)
  %94 = call i32 @brotli_map_error(i32 noundef %93)
  store i32 %94, ptr %16, align 4, !tbaa !22
  br label %95

95:                                               ; preds = %89, %88, %78
  br label %43, !llvm.loop !128

96:                                               ; preds = %75, %52
  %97 = load i32, ptr %16, align 4, !tbaa !22
  store i32 %97, ptr %6, align 4
  store i32 1, ptr %18, align 4
  br label %98

98:                                               ; preds = %96, %41, %27
  call void @llvm.lifetime.end.p0(i64 4, ptr %17) #5
  call void @llvm.lifetime.end.p0(i64 4, ptr %16) #5
  call void @llvm.lifetime.end.p0(i64 8, ptr %15) #5
  call void @llvm.lifetime.end.p0(i64 8, ptr %14) #5
  call void @llvm.lifetime.end.p0(i64 8, ptr %13) #5
  call void @llvm.lifetime.end.p0(i64 8, ptr %12) #5
  %99 = load i32, ptr %6, align 4
  ret i32 %99
}