; Function Attrs: nounwind uwtable
define internal i32 @brotli_do_write(ptr noundef %0, ptr noundef %1, i32 noundef %2, ptr noundef %3, i64 noundef %4) #0 {
  %6 = alloca i64, align 8
  %7 = alloca ptr, align 8
  %8 = alloca ptr, align 8
  %9 = alloca i64, align 8
  store i64 %4, ptr %6, align 8, !tbaa !109
  call void @llvm.lifetime.start.p0(i64 8, ptr nonnull %7) #8
  store ptr %3, ptr %7, align 8, !tbaa !110
  call void @llvm.lifetime.start.p0(i64 8, ptr nonnull %8) #8
  call void @llvm.lifetime.start.p0(i64 8, ptr nonnull %9) #8
  %10 = and i32 %2, 1
  %11 = icmp ne i32 %10, 0
  %12 = icmp ne i64 %4, 0
  %or.cond = and i1 %11, %12
  br i1 %or.cond, label %17, label %13

13:                                               ; preds = %5
  %14 = getelementptr inbounds nuw i8, ptr %1, i64 8
  %15 = load ptr, ptr %14, align 8, !tbaa !98
  %16 = tail call i32 @Curl_cwriter_write(ptr noundef %0, ptr noundef %15, i32 noundef %2, ptr noundef %3, i64 noundef %4) #8
  br label %.critedge

17:                                               ; preds = %5
  %18 = getelementptr inbounds nuw i8, ptr %1, i64 16416
  %19 = load ptr, ptr %18, align 8, !tbaa !106
  %.not = icmp eq ptr %19, null
  br i1 %.not, label %.critedge, label %.preheader

.preheader:                                       ; preds = %17
  %20 = getelementptr inbounds nuw i8, ptr %1, i64 32
  %21 = getelementptr inbounds nuw i8, ptr %1, i64 8
  br label %22

22:                                               ; preds = %.preheader, %brotli_map_error.exit
  store ptr %20, ptr %8, align 8, !tbaa !110
  store i64 16384, ptr %9, align 8, !tbaa !109
  %23 = load ptr, ptr %18, align 8, !tbaa !106
  %24 = call i32 @BrotliDecoderDecompressStream(ptr noundef %23, ptr noundef nonnull %6, ptr noundef nonnull %7, ptr noundef nonnull %9, ptr noundef nonnull %8, ptr noundef null) #8
  %25 = load ptr, ptr %21, align 8, !tbaa !98
  %26 = load i64, ptr %9, align 8, !tbaa !109
  %27 = sub i64 16384, %26
  %28 = call i32 @Curl_cwriter_write(ptr noundef %0, ptr noundef %25, i32 noundef %2, ptr noundef nonnull %20, i64 noundef %27) #8
  %.not31 = icmp eq i32 %28, 0
  br i1 %.not31, label %29, label %.critedge

29:                                               ; preds = %22
  switch i32 %24, label %33 [
    i32 3, label %brotli_map_error.exit
    i32 2, label %brotli_map_error.exit
    i32 1, label %30
  ]

30:                                               ; preds = %29
  %31 = load ptr, ptr %18, align 8, !tbaa !106
  call void @BrotliDecoderDestroyInstance(ptr noundef %31) #8
  store ptr null, ptr %18, align 8, !tbaa !106
  %32 = load i64, ptr %6, align 8, !tbaa !109
  %.not32 = icmp eq i64 %32, 0
  %spec.select = select i1 %.not32, i32 0, i32 23
  br label %brotli_map_error.exit

33:                                               ; preds = %29
  %34 = load ptr, ptr %18, align 8, !tbaa !106
  %35 = call i32 @BrotliDecoderGetErrorCode(ptr noundef %34) #8
  %36 = icmp ugt i32 %35, -31
  br i1 %36, label %switch.lookup, label %.critedge

brotli_map_error.exit:                            ; preds = %30, %29, %29
  %.2 = phi i32 [ 0, %29 ], [ 0, %29 ], [ %spec.select, %30 ]
  %37 = load i64, ptr %6, align 8, !tbaa !109
  %38 = icmp ne i64 %37, 0
  %39 = icmp eq i32 %24, 3
  %or.cond3 = select i1 %38, i1 true, i1 %39
  %40 = icmp eq i32 %.2, 0
  %or.cond5 = select i1 %or.cond3, i1 %40, i1 false
  br i1 %or.cond5, label %22, label %.critedge, !llvm.loop !111

switch.lookup:                                    ; preds = %33
  %switch.tableidx = add nsw i32 %35, 30
  %41 = sext i32 %switch.tableidx to i64
  %switch.gep = getelementptr inbounds [30 x i32], ptr @switch.table.brotli_do_write, i64 0, i64 %41
  %switch.load = load i32, ptr %switch.gep, align 4
  br label %.critedge

.critedge:                                        ; preds = %22, %brotli_map_error.exit, %33, %switch.lookup, %17, %13
  %.028 = phi i32 [ %16, %13 ], [ 23, %17 ], [ %switch.load, %switch.lookup ], [ 23, %33 ], [ %.2, %brotli_map_error.exit ], [ %28, %22 ]
  call void @llvm.lifetime.end.p0(i64 8, ptr nonnull %9) #8
  call void @llvm.lifetime.end.p0(i64 8, ptr nonnull %8) #8
  call void @llvm.lifetime.end.p0(i64 8, ptr nonnull %7) #8
  ret i32 %.028
}